#include <math.h>
#include <stdio.h>
#include <stdlib.h>
#include <string.h>

int main(){
	int a[5000],n,i,t,m,c,I=0,k;
	scanf("%d %d",&n,&k);
	for(i=0;i<n;i++)
		scanf("%d",&a[i]);
	for(t=i-1;t>0;t--){
		for(c=0;c<t;c++){
		if(a[c]>a[c+1]){
			m=a[c];
			a[c]=a[c+1];
			a[c+1]=m;
		}
		}
	}
	m=0;
	for(I=0;I<n-1;I++){
		for(t=I+1;t<n;t++){
			if(a[I]+a[t]==k){
				m=1;
				break;
			}
		}
	}
	if(m==1) printf("yes");
	if(m==0) printf("no");
	return 0;
}