; ModuleID = '3/2169.c'
source_filename = "3/2169.c"
target datalayout = "e-m:e-p270:32:32-p271:32:32-p272:64:64-i64:64-f80:128-n8:16:32:64-S128"
target triple = "x86_64-pc-linux-gnu"

@.str = private unnamed_addr constant [6 x i8] c"%d %d\00", align 1
@.str.1 = private unnamed_addr constant [3 x i8] c"%d\00", align 1
@.str.2 = private unnamed_addr constant [4 x i8] c"yes\00", align 1
@.str.3 = private unnamed_addr constant [3 x i8] c"no\00", align 1

; Function Attrs: noinline nounwind uwtable
define dso_local i32 @main() #0 {
  %1 = alloca i32, align 4
  %2 = alloca [5000 x i32], align 16
  %3 = alloca i32, align 4
  %4 = alloca i32, align 4
  %5 = alloca i32, align 4
  %6 = alloca i32, align 4
  %7 = alloca i32, align 4
  %8 = alloca i32, align 4
  %9 = alloca i32, align 4
  store i32 0, i32* %1, align 4
  store i32 0, i32* %8, align 4
  %10 = call i32 (i8*, ...) @__isoc99_scanf(i8* getelementptr inbounds ([6 x i8], [6 x i8]* @.str, i64 0, i64 0), i32* %3, i32* %9)
  store i32 0, i32* %4, align 4
  br label %11

11:                                               ; preds = %20, %0
  %12 = load i32, i32* %4, align 4
  %13 = load i32, i32* %3, align 4
  %14 = icmp slt i32 %12, %13
  br i1 %14, label %15, label %23

15:                                               ; preds = %11
  %16 = load i32, i32* %4, align 4
  %17 = sext i32 %16 to i64
  %18 = getelementptr inbounds [5000 x i32], [5000 x i32]* %2, i64 0, i64 %17
  %19 = call i32 (i8*, ...) @__isoc99_scanf(i8* getelementptr inbounds ([3 x i8], [3 x i8]* @.str.1, i64 0, i64 0), i32* %18)
  br label %20

20:                                               ; preds = %15
  %21 = load i32, i32* %4, align 4
  %22 = add nsw i32 %21, 1
  store i32 %22, i32* %4, align 4
  br label %11

23:                                               ; preds = %11
  %24 = load i32, i32* %4, align 4
  %25 = sub nsw i32 %24, 1
  store i32 %25, i32* %5, align 4
  br label %26

26:                                               ; preds = %68, %23
  %27 = load i32, i32* %5, align 4
  %28 = icmp sgt i32 %27, 0
  br i1 %28, label %29, label %71

29:                                               ; preds = %26
  store i32 0, i32* %7, align 4
  br label %30

30:                                               ; preds = %64, %29
  %31 = load i32, i32* %7, align 4
  %32 = load i32, i32* %5, align 4
  %33 = icmp slt i32 %31, %32
  br i1 %33, label %34, label %67

34:                                               ; preds = %30
  %35 = load i32, i32* %7, align 4
  %36 = sext i32 %35 to i64
  %37 = getelementptr inbounds [5000 x i32], [5000 x i32]* %2, i64 0, i64 %36
  %38 = load i32, i32* %37, align 4
  %39 = load i32, i32* %7, align 4
  %40 = add nsw i32 %39, 1
  %41 = sext i32 %40 to i64
  %42 = getelementptr inbounds [5000 x i32], [5000 x i32]* %2, i64 0, i64 %41
  %43 = load i32, i32* %42, align 4
  %44 = icmp sgt i32 %38, %43
  br i1 %44, label %45, label %63

45:                                               ; preds = %34
  %46 = load i32, i32* %7, align 4
  %47 = sext i32 %46 to i64
  %48 = getelementptr inbounds [5000 x i32], [5000 x i32]* %2, i64 0, i64 %47
  %49 = load i32, i32* %48, align 4
  store i32 %49, i32* %6, align 4
  %50 = load i32, i32* %7, align 4
  %51 = add nsw i32 %50, 1
  %52 = sext i32 %51 to i64
  %53 = getelementptr inbounds [5000 x i32], [5000 x i32]* %2, i64 0, i64 %52
  %54 = load i32, i32* %53, align 4
  %55 = load i32, i32* %7, align 4
  %56 = sext i32 %55 to i64
  %57 = getelementptr inbounds [5000 x i32], [5000 x i32]* %2, i64 0, i64 %56
  store i32 %54, i32* %57, align 4
  %58 = load i32, i32* %6, align 4
  %59 = load i32, i32* %7, align 4
  %60 = add nsw i32 %59, 1
  %61 = sext i32 %60 to i64
  %62 = getelementptr inbounds [5000 x i32], [5000 x i32]* %2, i64 0, i64 %61
  store i32 %58, i32* %62, align 4
  br label %63

63:                                               ; preds = %45, %34
  br label %64

64:                                               ; preds = %63
  %65 = load i32, i32* %7, align 4
  %66 = add nsw i32 %65, 1
  store i32 %66, i32* %7, align 4
  br label %30

67:                                               ; preds = %30
  br label %68

68:                                               ; preds = %67
  %69 = load i32, i32* %5, align 4
  %70 = add nsw i32 %69, -1
  store i32 %70, i32* %5, align 4
  br label %26

71:                                               ; preds = %26
  store i32 0, i32* %6, align 4
  store i32 0, i32* %8, align 4
  br label %72

72:                                               ; preds = %102, %71
  %73 = load i32, i32* %8, align 4
  %74 = load i32, i32* %3, align 4
  %75 = sub nsw i32 %74, 1
  %76 = icmp slt i32 %73, %75
  br i1 %76, label %77, label %105

77:                                               ; preds = %72
  %78 = load i32, i32* %8, align 4
  %79 = add nsw i32 %78, 1
  store i32 %79, i32* %5, align 4
  br label %80

80:                                               ; preds = %98, %77
  %81 = load i32, i32* %5, align 4
  %82 = load i32, i32* %3, align 4
  %83 = icmp slt i32 %81, %82
  br i1 %83, label %84, label %101

84:                                               ; preds = %80
  %85 = load i32, i32* %8, align 4
  %86 = sext i32 %85 to i64
  %87 = getelementptr inbounds [5000 x i32], [5000 x i32]* %2, i64 0, i64 %86
  %88 = load i32, i32* %87, align 4
  %89 = load i32, i32* %5, align 4
  %90 = sext i32 %89 to i64
  %91 = getelementptr inbounds [5000 x i32], [5000 x i32]* %2, i64 0, i64 %90
  %92 = load i32, i32* %91, align 4
  %93 = add nsw i32 %88, %92
  %94 = load i32, i32* %9, align 4
  %95 = icmp eq i32 %93, %94
  br i1 %95, label %96, label %97

96:                                               ; preds = %84
  store i32 1, i32* %6, align 4
  br label %101

97:                                               ; preds = %84
  br label %98

98:                                               ; preds = %97
  %99 = load i32, i32* %5, align 4
  %100 = add nsw i32 %99, 1
  store i32 %100, i32* %5, align 4
  br label %80

101:                                              ; preds = %96, %80
  br label %102

102:                                              ; preds = %101
  %103 = load i32, i32* %8, align 4
  %104 = add nsw i32 %103, 1
  store i32 %104, i32* %8, align 4
  br label %72

105:                                              ; preds = %72
  %106 = load i32, i32* %6, align 4
  %107 = icmp eq i32 %106, 1
  br i1 %107, label %108, label %110

108:                                              ; preds = %105
  %109 = call i32 (i8*, ...) @printf(i8* getelementptr inbounds ([4 x i8], [4 x i8]* @.str.2, i64 0, i64 0))
  br label %110

110:                                              ; preds = %108, %105
  %111 = load i32, i32* %6, align 4
  %112 = icmp eq i32 %111, 0
  br i1 %112, label %113, label %115

113:                                              ; preds = %110
  %114 = call i32 (i8*, ...) @printf(i8* getelementptr inbounds ([3 x i8], [3 x i8]* @.str.3, i64 0, i64 0))
  br label %115

115:                                              ; preds = %113, %110
  ret i32 0
}

declare dso_local i32 @__isoc99_scanf(i8*, ...) #1

declare dso_local i32 @printf(i8*, ...) #1


!llvm.module.flags = !{!0}
!llvm.ident = !{!1}

!0 = !{i32 1, !"wchar_size", i32 4}
!1 = !{!"clang version 10.0.0-4ubuntu1 "}
